; Function Attrs: mustprogress uwtable
define hidden void @_ZN12opencv_caffe18ThresholdParameter5ClearEv(ptr noundef nonnull align 8 dereferenceable(32) initializes((16, 20), (24, 28)) %0) unnamed_addr #3 align 2 {
  %2 = getelementptr inbounds nuw i8, ptr %0, i64 24
  store float 0.000000e+00, ptr %2, align 8, !tbaa !491
  %3 = getelementptr inbounds nuw i8, ptr %0, i64 16
  store i32 0, ptr %3, align 8
  %4 = getelementptr inbounds nuw i8, ptr %0, i64 8
  %5 = load i64, ptr %4, align 8, !tbaa !8
  %6 = and i64 %5, 1
  %.not = icmp eq i64 %6, 0
  br i1 %.not, label %_ZN6google8protobuf8internal16InternalMetadata5ClearINS0_15UnknownFieldSetEEEvv.exit, label %7

7:                                                ; preds = %1
  tail call void @_ZN6google8protobuf8internal16InternalMetadata7DoClearINS0_15UnknownFieldSetEEEvv(ptr noundef nonnull align 8 dereferenceable(8) %4)
  br label %_ZN6google8protobuf8internal16InternalMetadata5ClearINS0_15UnknownFieldSetEEEvv.exit

_ZN6google8protobuf8internal16InternalMetadata5ClearINS0_15UnknownFieldSetEEEvv.exit: ; preds = %1, %7
  ret void
}